target datalayout = "e-m:e-p270:32:32-p271:32:32-p272:64:64-i64:64-i128:128-f80:128-n8:16:32:64-S128"
target triple = "x86_64-pc-linux-gnu"

%struct._zend_refcounted_h = type { i32, %union.anon.4 }
%union.anon.4 = type { i32 }
%struct._zend_string = type { %struct._zend_refcounted_h, i64, i64, [1 x i8] }
%struct.smart_str = type { ptr, i64 }

@.str.169 = private unnamed_addr constant [5 x i8] c"    \00", align 1

; Function Attrs: nounwind uwtable
define internal void @zend_ast_export_indent(ptr noundef %0, i32 noundef %1) #0 {
  %3 = alloca ptr, align 8
  %4 = alloca i64, align 8
  %5 = alloca i8, align 1
  %6 = alloca ptr, align 8
  %7 = alloca ptr, align 8
  %8 = alloca i64, align 8
  %9 = alloca i8, align 1
  %10 = alloca i64, align 8
  %11 = alloca ptr, align 8
  %12 = alloca ptr, align 8
  %13 = alloca ptr, align 8
  %14 = alloca i32, align 4
  store ptr %0, ptr %13, align 8
  store i32 %1, ptr %14, align 4
  br label %15

15:                                               ; preds = %57, %2
  %16 = load i32, ptr %14, align 4
  %17 = icmp sgt i32 %16, 0
  br i1 %17, label %18, label %75

18:                                               ; preds = %15
  %19 = load ptr, ptr %13, align 8
  store ptr %19, ptr %11, align 8
  store ptr @.str.169, ptr %12, align 8
  %20 = load ptr, ptr %11, align 8
  %21 = load ptr, ptr %12, align 8
  %22 = load ptr, ptr %12, align 8
  %23 = call i64 @strlen(ptr noundef %22) #14
  store ptr %20, ptr %6, align 8
  store ptr %21, ptr %7, align 8
  store i64 %23, ptr %8, align 8
  store i8 0, ptr %9, align 1
  %24 = load ptr, ptr %6, align 8
  %25 = load i64, ptr %8, align 8
  %26 = load i8, ptr %9, align 1
  %27 = trunc i8 %26 to i1
  store ptr %24, ptr %3, align 8
  store i64 %25, ptr %4, align 8
  %28 = zext i1 %27 to i8
  store i8 %28, ptr %5, align 1
  %29 = load ptr, ptr %3, align 8
  %30 = load ptr, ptr %29, align 8
  %31 = icmp ne ptr %30, null
  %32 = xor i1 %31, true
  br i1 %32, label %33, label %34

33:                                               ; preds = %18
  br label %47

34:                                               ; preds = %18
  %35 = load ptr, ptr %3, align 8
  %36 = load ptr, ptr %35, align 8
  %37 = getelementptr inbounds %struct._zend_string, ptr %36, i32 0, i32 2
  %38 = load i64, ptr %37, align 8
  %39 = load i64, ptr %4, align 8
  %40 = add i64 %39, %38
  store i64 %40, ptr %4, align 8
  %41 = load i64, ptr %4, align 8
  %42 = load ptr, ptr %3, align 8
  %43 = getelementptr inbounds %struct.smart_str, ptr %42, i32 0, i32 1
  %44 = load i64, ptr %43, align 8
  %45 = icmp uge i64 %41, %44
  br i1 %45, label %46, label %57

46:                                               ; preds = %34
  br label %47

47:                                               ; preds = %46, %33
  %48 = load i8, ptr %5, align 1
  %49 = trunc i8 %48 to i1
  br i1 %49, label %50, label %53

50:                                               ; preds = %47
  %51 = load ptr, ptr %3, align 8
  %52 = load i64, ptr %4, align 8
  call void @smart_str_realloc(ptr noundef %51, i64 noundef %52) #10
  br label %56

53:                                               ; preds = %47
  %54 = load ptr, ptr %3, align 8
  %55 = load i64, ptr %4, align 8
  call void @smart_str_erealloc(ptr noundef %54, i64 noundef %55) #10
  br label %56

56:                                               ; preds = %53, %50
  br label %57

57:                                               ; preds = %56, %34
  %58 = load i64, ptr %4, align 8
  store i64 %58, ptr %10, align 8
  %59 = load ptr, ptr %6, align 8
  %60 = load ptr, ptr %59, align 8
  %61 = getelementptr inbounds %struct._zend_string, ptr %60, i32 0, i32 3
  %62 = load ptr, ptr %6, align 8
  %63 = load ptr, ptr %62, align 8
  %64 = getelementptr inbounds %struct._zend_string, ptr %63, i32 0, i32 2
  %65 = load i64, ptr %64, align 8
  %66 = getelementptr inbounds i8, ptr %61, i64 %65
  %67 = load ptr, ptr %7, align 8
  %68 = load i64, ptr %8, align 8
  call void @llvm.memcpy.p0.p0.i64(ptr align 1 %66, ptr align 1 %67, i64 %68, i1 false)
  %69 = load i64, ptr %10, align 8
  %70 = load ptr, ptr %6, align 8
  %71 = load ptr, ptr %70, align 8
  %72 = getelementptr inbounds %struct._zend_string, ptr %71, i32 0, i32 2
  store i64 %69, ptr %72, align 8
  %73 = load i32, ptr %14, align 4
  %74 = add nsw i32 %73, -1
  store i32 %74, ptr %14, align 4
  br label %15

75:                                               ; preds = %15
  ret void
}