; Function Attrs: nounwind uwtable
define internal fastcc void @zend_ast_export_indent(ptr noundef %0, i32 noundef %1) unnamed_addr #0 {
  %3 = icmp sgt i32 %1, 0
  br i1 %3, label %.lr.ph, label %._crit_edge

.lr.ph:                                           ; preds = %2
  %4 = getelementptr inbounds i8, ptr %0, i64 8
  br label %5

5:                                                ; preds = %.lr.ph, %13
  %.029 = phi i32 [ %1, %.lr.ph ], [ %20, %13 ]
  %6 = load ptr, ptr %0, align 8
  %.not = icmp eq ptr %6, null
  br i1 %.not, label %12, label %7

7:                                                ; preds = %5
  %8 = getelementptr inbounds i8, ptr %6, i64 16
  %9 = load i64, ptr %8, align 8
  %10 = add i64 %9, 4
  %11 = load i64, ptr %4, align 8
  %.not28 = icmp ult i64 %10, %11
  br i1 %.not28, label %13, label %12

12:                                               ; preds = %5, %7
  %.025 = phi i64 [ 4, %5 ], [ %10, %7 ]
  tail call void @smart_str_erealloc(ptr noundef nonnull %0, i64 noundef %.025) #14
  %.pre = load ptr, ptr %0, align 8
  %.phi.trans.insert = getelementptr inbounds i8, ptr %.pre, i64 16
  %.pre30 = load i64, ptr %.phi.trans.insert, align 8
  br label %13

13:                                               ; preds = %12, %7
  %14 = phi i64 [ %.pre30, %12 ], [ %9, %7 ]
  %15 = phi ptr [ %.pre, %12 ], [ %6, %7 ]
  %.1 = phi i64 [ %.025, %12 ], [ %10, %7 ]
  %16 = getelementptr inbounds i8, ptr %15, i64 24
  %17 = getelementptr inbounds i8, ptr %16, i64 %14
  store i32 538976288, ptr %17, align 1
  %18 = load ptr, ptr %0, align 8
  %19 = getelementptr inbounds i8, ptr %18, i64 16
  store i64 %.1, ptr %19, align 8
  %20 = add nsw i32 %.029, -1
  %21 = icmp sgt i32 %.029, 1
  br i1 %21, label %5, label %._crit_edge

._crit_edge:                                      ; preds = %13, %2
  ret void
}